Certificate:
    Data:
        Version: 3 (0x2)
        Serial Number: 3 (0x3)
        Signature Algorithm: sha256WithRSAEncryption
        Issuer: C=GB, ST=Surrey, L=Purley, O=Alan Chandler, CN=Alan Chandler Certificate Authority/emailAddress=alan@chandlerfamily.org.uk
        Validity
            Not Before: Apr 11 05:39:02 2020 GMT
            Not After : Apr 10 05:39:02 2025 GMT
        Subject: C=GB, ST=Surrey, O=Alan Chandler, CN=recorder.home
        Subject Public Key Info:
            Public Key Algorithm: rsaEncryption
                RSA Public-Key: (2048 bit)
                Modulus:
                    00:d3:b1:27:ec:85:f0:92:ca:e1:91:be:30:bf:1d:
                    46:d7:7a:f5:0c:ef:e2:21:6f:f6:4c:10:a0:6a:1c:
                    2f:de:4b:7a:95:24:a8:37:89:79:79:2b:ae:d5:c2:
                    d5:ab:74:4c:d0:3b:66:af:65:c5:46:5f:1c:dc:2e:
                    37:e0:19:aa:50:59:08:bd:79:b3:e7:7a:74:91:1b:
                    b3:20:55:9f:3e:52:f4:63:23:19:28:82:87:9a:d5:
                    91:f7:86:54:5d:c6:e7:e9:e8:dc:f5:19:a2:6c:37:
                    35:b2:b1:fa:c1:5d:de:54:bf:7e:81:a1:a8:ea:42:
                    44:eb:dd:60:eb:b0:7f:49:6d:b9:f6:ef:31:ae:7c:
                    ae:26:7f:f3:0b:a4:28:da:29:3b:26:08:b2:3e:fc:
                    2a:bf:5a:df:4f:22:5a:27:6f:a8:a4:f4:b6:4e:28:
                    2e:fa:81:43:97:db:42:b9:7c:5a:b0:c4:6c:64:6b:
                    96:d4:52:78:93:f7:90:f5:d1:1d:f8:35:05:fb:47:
                    8d:46:59:4a:83:98:10:0a:3e:39:65:fe:d9:6c:7c:
                    3c:42:c3:fc:57:e3:d4:8d:29:b5:d8:35:31:34:b1:
                    eb:ce:15:3d:7b:dc:f1:ee:9a:cc:d2:65:fd:7a:38:
                    55:d4:71:9f:58:c8:fa:48:28:d3:81:86:b1:ce:b6:
                    f5:5b
                Exponent: 65537 (0x10001)
        X509v3 extensions:
            X509v3 Basic Constraints: 
                CA:FALSE
            X509v3 Subject Key Identifier: 
                89:50:6E:95:E3:F6:C8:A1:68:36:EF:60:40:62:E1:4C:44:EA:44:C5
            X509v3 Authority Key Identifier: 
                keyid:81:80:66:0D:D9:E5:0E:F8:4E:09:51:DF:A7:47:B9:44:6D:0E:60:E8

            Netscape CA Revocation Url: 
                https://www.chandlerfamily.org.uk/ca/akc-crl.pem
            X509v3 Key Usage: 
                Digital Signature, Non Repudiation, Key Encipherment
            X509v3 Subject Alternative Name: 
                DNS:recorder.home, DNS:recorder.test
    Signature Algorithm: sha256WithRSAEncryption
         ae:f2:3e:4d:19:f1:81:31:b7:43:c8:26:fa:83:6f:59:24:e1:
         ee:72:b1:bd:ac:f8:a7:1a:2a:df:ab:36:87:0d:0f:e5:74:e9:
         82:2b:ba:7c:44:25:a1:05:74:ba:d0:d9:5e:b9:d7:66:78:19:
         8e:75:66:cf:8f:68:c8:58:0a:5e:26:a4:ee:b2:f6:bb:2d:fa:
         7b:a4:4c:f8:8f:81:b8:3e:de:65:b1:b8:a9:c8:bc:81:cf:b9:
         26:af:60:4f:35:8e:a5:65:15:4c:4c:df:b9:6e:46:08:28:19:
         81:09:62:87:f6:1e:26:80:f5:e8:51:68:26:ac:29:1c:18:f7:
         ff:40:4c:3d:04:0b:2d:f0:8c:46:4d:24:36:a5:ca:cb:de:1d:
         01:ec:84:a3:30:93:aa:b5:9e:7b:29:23:13:e2:5d:7a:97:4f:
         27:c4:0c:13:d2:8b:c2:2f:ad:68:1c:e2:73:df:04:ab:25:a4:
         23:1e:22:5c:53:f8:a2:4f:84:0c:33:61:a0:c9:e4:ca:d0:b1:
         4b:80:aa:a7:47:10:4c:c7:40:10:5a:d4:c5:9b:ba:3d:a1:c9:
         10:36:13:c6:52:a4:e9:57:b5:04:e1:22:48:da:a8:05:d2:1c:
         59:3c:95:df:2c:02:d1:42:17:33:70:78:9b:fb:a7:0d:55:30:
         60:da:12:72
-----BEGIN CERTIFICATE-----
MIIEMDCCAxigAwIBAgIBAzANBgkqhkiG9w0BAQsFADCBoDELMAkGA1UEBhMCR0Ix
DzANBgNVBAgMBlN1cnJleTEPMA0GA1UEBwwGUHVybGV5MRYwFAYDVQQKDA1BbGFu
IENoYW5kbGVyMSwwKgYDVQQDDCNBbGFuIENoYW5kbGVyIENlcnRpZmljYXRlIEF1
dGhvcml0eTEpMCcGCSqGSIb3DQEJARYaYWxhbkBjaGFuZGxlcmZhbWlseS5vcmcu
dWswHhcNMjAwNDExMDUzOTAyWhcNMjUwNDEwMDUzOTAyWjBOMQswCQYDVQQGEwJH
QjEPMA0GA1UECBMGU3VycmV5MRYwFAYDVQQKEw1BbGFuIENoYW5kbGVyMRYwFAYD
VQQDEw1yZWNvcmRlci5ob21lMIIBIjANBgkqhkiG9w0BAQEFAAOCAQ8AMIIBCgKC
AQEA07En7IXwksrhkb4wvx1G13r1DO/iIW/2TBCgahwv3kt6lSSoN4l5eSuu1cLV
q3RM0Dtmr2XFRl8c3C434BmqUFkIvXmz53p0kRuzIFWfPlL0YyMZKIKHmtWR94ZU
Xcbn6ejc9RmibDc1srH6wV3eVL9+gaGo6kJE691g67B/SW259u8xrnyuJn/zC6Qo
2ik7JgiyPvwqv1rfTyJaJ2+opPS2Tigu+oFDl9tCuXxasMRsZGuW1FJ4k/eQ9dEd
+DUF+0eNRllKg5gQCj45Zf7ZbHw8QsP8V+PUjSm12DUxNLHrzhU9e9zx7prM0mX9
ejhV1HGfWMj6SCjTgYaxzrb1WwIDAQABo4HFMIHCMAkGA1UdEwQCMAAwHQYDVR0O
BBYEFIlQbpXj9sihaDbvYEBi4UxE6kTFMB8GA1UdIwQYMBaAFIGAZg3Z5Q74TglR
36dHuURtDmDoMD8GCWCGSAGG+EIBBAQyFjBodHRwczovL3d3dy5jaGFuZGxlcmZh
bWlseS5vcmcudWsvY2EvYWtjLWNybC5wZW0wCwYDVR0PBAQDAgXgMCcGA1UdEQQg
MB6CDXJlY29yZGVyLmhvbWWCDXJlY29yZGVyLnRlc3QwDQYJKoZIhvcNAQELBQAD
ggEBAK7yPk0Z8YExt0PIJvqDb1kk4e5ysb2s+KcaKt+rNocND+V06YIrunxEJaEF
dLrQ2V6512Z4GY51Zs+PaMhYCl4mpO6y9rst+nukTPiPgbg+3mWxuKnIvIHPuSav
YE81jqVlFUxM37luRggoGYEJYof2HiaA9ehRaCasKRwY9/9ATD0ECy3wjEZNJDal
ysveHQHshKMwk6q1nnspIxPiXXqXTyfEDBPSi8IvrWgc4nPfBKslpCMeIlxT+KJP
hAwzYaDJ5MrQsUuAqqdHEEzHQBBa1MWbuj2hyRA2E8ZSpOlXtQThIkjaqAXSHFk8
ld8sAtFCFzNweJv7pw1VMGDaEnI=
-----END CERTIFICATE-----
