Certificate:
    Data:
        Version: 3 (0x2)
        Serial Number: 2 (0x2)
        Signature Algorithm: sha256WithRSAEncryption
        Issuer: C=GB, ST=Surrey, L=Purley, O=Alan Chandler, CN=Alan Chandler Certificate Authority/emailAddress=alan@chandlerfamily.org.uk
        Validity
            Not Before: Mar  3 07:41:50 2020 GMT
            Not After : Mar  2 07:41:50 2025 GMT
        Subject: C=GB, ST=Surrey, O=Alan Chandler, CN=eeyore.home
        Subject Public Key Info:
            Public Key Algorithm: rsaEncryption
                RSA Public-Key: (2048 bit)
                Modulus:
                    00:d6:45:54:b4:b7:44:dd:69:73:a5:d5:2a:f3:92:
                    e9:4e:51:f0:7d:d4:64:0e:24:5e:37:2e:7a:df:bc:
                    69:ad:ff:64:d6:17:2b:7d:22:45:5f:0d:45:e8:bf:
                    6f:1a:5c:de:c9:c7:2b:9d:1f:ac:7f:89:f3:e6:86:
                    44:29:87:f3:21:a2:fb:a7:5e:53:1f:04:b6:39:59:
                    15:fa:a1:ec:e2:1c:95:aa:2b:c1:fc:66:fa:41:44:
                    1e:57:01:92:10:7b:7a:ac:f8:be:d6:31:95:51:c5:
                    dd:c6:54:a1:b1:89:18:f0:f5:4c:86:d2:8e:40:fa:
                    7d:17:94:f9:9c:9b:80:0e:59:34:50:7d:1b:48:6a:
                    7f:7a:49:09:12:3f:f6:7e:51:63:39:1d:af:c5:8a:
                    e9:d0:f2:b1:b3:cd:39:70:a2:fb:1c:3b:03:c6:32:
                    61:4b:13:5f:85:53:39:f8:c2:9c:46:03:0d:93:ff:
                    2d:29:35:7b:3a:1a:fe:59:98:d0:6f:fb:b4:42:90:
                    a7:b6:b5:37:a4:f5:ca:34:ba:23:3c:c2:d7:6f:4a:
                    2d:b4:1a:67:22:06:17:97:54:47:02:de:b3:51:dc:
                    30:44:0e:4a:ef:5d:66:23:35:8d:05:97:c6:1d:70:
                    cc:2c:c3:f1:95:19:18:7a:0a:be:fb:af:9e:74:2a:
                    96:79
                Exponent: 65537 (0x10001)
        X509v3 extensions:
            X509v3 Basic Constraints: 
                CA:FALSE
            X509v3 Subject Key Identifier: 
                AF:90:5E:79:9F:F1:36:39:BD:6E:47:9D:85:63:2E:D6:03:72:06:A3
            X509v3 Authority Key Identifier: 
                keyid:81:80:66:0D:D9:E5:0E:F8:4E:09:51:DF:A7:47:B9:44:6D:0E:60:E8

            Netscape CA Revocation Url: 
                https://www.chandlerfamily.org.uk/ca/akc-crl.pem
            X509v3 Key Usage: 
                Digital Signature, Non Repudiation, Key Encipherment
            X509v3 Subject Alternative Name: 
                DNS:eeyore.home, DNS:recorder.home, DNS:recorder.test
    Signature Algorithm: sha256WithRSAEncryption
         65:5e:4f:fb:09:c5:b9:cf:b6:ca:73:4c:fd:cd:a1:48:85:b2:
         36:c2:4e:74:cc:80:56:2f:8f:3b:c4:62:59:d9:d5:3b:6a:b1:
         64:87:8c:d3:91:71:ba:02:75:f4:72:f3:2f:05:b9:9e:e1:f1:
         f6:8b:ea:22:a1:d4:d0:5f:cc:a6:b7:3b:0f:f7:d5:74:47:60:
         06:72:8c:f8:89:89:e0:b3:a5:cf:1d:19:6f:7a:77:34:24:0d:
         dc:81:67:fa:7b:c5:88:d0:45:60:d3:36:56:b0:64:e4:9b:0f:
         d1:04:50:3d:71:21:a0:7e:67:df:8a:36:e3:09:df:e4:97:e1:
         e2:32:62:e3:3a:53:bd:c2:6c:29:16:4b:fc:d7:f7:cb:2c:00:
         18:3f:b3:ad:16:c3:98:b1:e3:bf:9f:e8:17:d1:61:b5:b2:d2:
         71:37:48:f7:d1:67:41:5b:58:f8:7b:21:37:72:25:b0:06:a9:
         04:b6:ea:da:db:22:71:72:f6:99:d6:2b:6a:96:48:ff:a0:a9:
         10:e0:7c:a2:cd:26:e8:16:49:7a:4e:bc:ce:1b:f9:90:8e:a5:
         4c:c9:4f:55:2b:1f:fb:6a:25:d1:94:21:e8:56:1e:b9:86:57:
         86:19:38:22:5e:f9:f4:7c:28:31:95:df:26:7d:e5:d5:7c:d7:
         d6:88:7b:3a
-----BEGIN CERTIFICATE-----
MIIEOzCCAyOgAwIBAgIBAjANBgkqhkiG9w0BAQsFADCBoDELMAkGA1UEBhMCR0Ix
DzANBgNVBAgMBlN1cnJleTEPMA0GA1UEBwwGUHVybGV5MRYwFAYDVQQKDA1BbGFu
IENoYW5kbGVyMSwwKgYDVQQDDCNBbGFuIENoYW5kbGVyIENlcnRpZmljYXRlIEF1
dGhvcml0eTEpMCcGCSqGSIb3DQEJARYaYWxhbkBjaGFuZGxlcmZhbWlseS5vcmcu
dWswHhcNMjAwMzAzMDc0MTUwWhcNMjUwMzAyMDc0MTUwWjBMMQswCQYDVQQGEwJH
QjEPMA0GA1UECBMGU3VycmV5MRYwFAYDVQQKEw1BbGFuIENoYW5kbGVyMRQwEgYD
VQQDEwtlZXlvcmUuaG9tZTCCASIwDQYJKoZIhvcNAQEBBQADggEPADCCAQoCggEB
ANZFVLS3RN1pc6XVKvOS6U5R8H3UZA4kXjcuet+8aa3/ZNYXK30iRV8NRei/bxpc
3snHK50frH+J8+aGRCmH8yGi+6deUx8EtjlZFfqh7OIclaorwfxm+kFEHlcBkhB7
eqz4vtYxlVHF3cZUobGJGPD1TIbSjkD6fReU+ZybgA5ZNFB9G0hqf3pJCRI/9n5R
Yzkdr8WK6dDysbPNOXCi+xw7A8YyYUsTX4VTOfjCnEYDDZP/LSk1ezoa/lmY0G/7
tEKQp7a1N6T1yjS6IzzC129KLbQaZyIGF5dURwLes1HcMEQOSu9dZiM1jQWXxh1w
zCzD8ZUZGHoKvvuvnnQqlnkCAwEAAaOB0jCBzzAJBgNVHRMEAjAAMB0GA1UdDgQW
BBSvkF55n/E2Ob1uR52FYy7WA3IGozAfBgNVHSMEGDAWgBSBgGYN2eUO+E4JUd+n
R7lEbQ5g6DA/BglghkgBhvhCAQQEMhYwaHR0cHM6Ly93d3cuY2hhbmRsZXJmYW1p
bHkub3JnLnVrL2NhL2FrYy1jcmwucGVtMAsGA1UdDwQEAwIF4DA0BgNVHREELTAr
ggtlZXlvcmUuaG9tZYINcmVjb3JkZXIuaG9tZYINcmVjb3JkZXIudGVzdDANBgkq
hkiG9w0BAQsFAAOCAQEAZV5P+wnFuc+2ynNM/c2hSIWyNsJOdMyAVi+PO8RiWdnV
O2qxZIeM05FxugJ19HLzLwW5nuHx9ovqIqHU0F/Mprc7D/fVdEdgBnKM+ImJ4LOl
zx0Zb3p3NCQN3IFn+nvFiNBFYNM2VrBk5JsP0QRQPXEhoH5n34o24wnf5Jfh4jJi
4zpTvcJsKRZL/Nf3yywAGD+zrRbDmLHjv5/oF9FhtbLScTdI99FnQVtY+HshN3Il
sAapBLbq2tsicXL2mdYrapZI/6CpEOB8os0m6BZJek68zhv5kI6lTMlPVSsf+2ol
0ZQh6FYeuYZXhhk4Il759HwoMZXfJn3l1XzX1oh7Og==
-----END CERTIFICATE-----
