Certificate:
    Data:
        Version: 3 (0x2)
        Serial Number: 1 (0x1)
        Signature Algorithm: sha256WithRSAEncryption
        Issuer: C=GB, ST=Surrey, L=Purley, O=Alan Chandler, CN=Alan Chandler Certificate Authority/emailAddress=alan@chandlerfamily.org.uk
        Validity
            Not Before: Feb  5 11:55:36 2020 GMT
            Not After : Feb  3 11:55:36 2025 GMT
        Subject: C=GB, ST=Surrey, O=Alan Chandler, CN=eeyore.home
        Subject Public Key Info:
            Public Key Algorithm: rsaEncryption
                RSA Public-Key: (2048 bit)
                Modulus:
                    00:eb:9b:c3:8b:e5:bb:a2:32:ee:69:2d:0f:4d:0e:
                    ae:97:61:32:90:34:cd:de:f6:f2:ef:81:b4:9d:fd:
                    5a:3c:7a:b2:55:cc:78:99:2f:69:cb:7c:7a:78:3f:
                    a4:98:c6:27:f2:aa:dd:48:cd:d3:fd:68:3a:fc:57:
                    7a:89:e4:06:f3:f3:39:31:73:43:5d:f8:f7:fc:62:
                    1b:78:4b:c1:85:91:69:f7:e0:0e:7a:35:cd:70:dc:
                    9e:0d:e7:c1:05:f7:5d:04:d7:7f:c9:e9:c7:77:b8:
                    ec:d9:62:b5:54:51:8b:9f:68:e7:66:32:7c:84:83:
                    93:e9:58:e3:4c:c8:e6:1f:87:6f:b7:9a:b3:d8:8b:
                    2e:d3:47:38:36:d8:f3:da:73:35:00:53:e4:77:2e:
                    f4:05:14:96:a7:2f:78:bd:50:0c:5a:ef:4f:50:7a:
                    eb:47:ca:96:80:64:a0:77:18:20:16:90:62:ff:d8:
                    c7:f5:e0:8f:13:23:56:ee:2e:98:65:9d:6e:8f:91:
                    56:4d:f0:38:0b:79:d2:23:24:94:cc:8f:eb:5a:e5:
                    99:d5:b2:1b:a0:9f:b4:9f:3d:f7:4d:9b:c6:46:d9:
                    52:fe:2e:0f:9f:af:98:98:61:f3:d1:ba:93:a2:a9:
                    43:e6:f1:50:ab:65:ec:0d:09:92:1a:0a:fd:c0:9d:
                    c4:ed
                Exponent: 65537 (0x10001)
        X509v3 extensions:
            X509v3 Basic Constraints: 
                CA:FALSE
            X509v3 Subject Key Identifier: 
                16:FE:CB:6F:8D:09:FD:F9:61:02:E5:C5:23:EE:6C:B3:2F:DD:9E:1C
            X509v3 Authority Key Identifier: 
                keyid:81:80:66:0D:D9:E5:0E:F8:4E:09:51:DF:A7:47:B9:44:6D:0E:60:E8

            Netscape CA Revocation Url: 
                https://www.chandlerfamily.org.uk/ca/akc-crl.pem
            X509v3 Key Usage: 
                Digital Signature, Non Repudiation, Key Encipherment
            X509v3 Subject Alternative Name: 
                DNS:eeyore.home, DNS:recorder.home
    Signature Algorithm: sha256WithRSAEncryption
         a5:23:7a:0b:8e:7f:65:7e:6a:80:fe:7d:a9:29:10:27:e3:b3:
         c4:d5:0a:ce:6c:dc:ff:dc:a0:da:dc:ac:dc:6b:67:d2:81:7b:
         78:90:76:5e:b1:55:1c:59:46:6a:36:94:35:76:59:ef:6a:35:
         78:ff:f5:ca:4e:46:a8:75:5b:6f:b2:a0:40:aa:bb:1d:c2:7d:
         53:4c:d9:48:77:6b:80:da:c1:df:37:c0:e5:9e:c7:90:42:9c:
         62:43:ed:dd:c4:46:4f:a9:0f:20:67:46:ab:b7:c7:9e:87:bd:
         6c:39:8f:52:b7:28:f6:ed:16:09:1e:98:af:1f:7e:9d:19:93:
         9a:5a:03:23:a4:63:6e:3e:15:53:e5:49:7d:39:5e:a2:70:11:
         3e:26:4f:f9:2b:42:80:55:7a:b9:89:8c:19:54:c4:71:5d:aa:
         77:66:f1:1f:c7:40:38:9b:76:d4:5d:45:42:5f:d5:67:83:9c:
         a0:a1:5c:c7:c8:77:2d:04:56:74:31:d1:9b:5f:ad:d4:fa:7b:
         4b:57:c1:a9:92:c0:e4:9c:b6:f8:a5:4d:86:2b:7b:fa:b9:49:
         42:77:8d:52:b3:86:f4:b2:09:4c:37:44:fe:28:95:08:ce:b6:
         97:28:1d:14:32:45:52:18:c8:05:d0:75:a8:43:b0:29:fd:1e:
         48:3c:4e:d8
-----BEGIN CERTIFICATE-----
MIIELDCCAxSgAwIBAgIBATANBgkqhkiG9w0BAQsFADCBoDELMAkGA1UEBhMCR0Ix
DzANBgNVBAgMBlN1cnJleTEPMA0GA1UEBwwGUHVybGV5MRYwFAYDVQQKDA1BbGFu
IENoYW5kbGVyMSwwKgYDVQQDDCNBbGFuIENoYW5kbGVyIENlcnRpZmljYXRlIEF1
dGhvcml0eTEpMCcGCSqGSIb3DQEJARYaYWxhbkBjaGFuZGxlcmZhbWlseS5vcmcu
dWswHhcNMjAwMjA1MTE1NTM2WhcNMjUwMjAzMTE1NTM2WjBMMQswCQYDVQQGEwJH
QjEPMA0GA1UECBMGU3VycmV5MRYwFAYDVQQKEw1BbGFuIENoYW5kbGVyMRQwEgYD
VQQDEwtlZXlvcmUuaG9tZTCCASIwDQYJKoZIhvcNAQEBBQADggEPADCCAQoCggEB
AOubw4vlu6Iy7mktD00OrpdhMpA0zd728u+BtJ39Wjx6slXMeJkvact8eng/pJjG
J/Kq3UjN0/1oOvxXeonkBvPzOTFzQ1349/xiG3hLwYWRaffgDno1zXDcng3nwQX3
XQTXf8npx3e47NlitVRRi59o52YyfISDk+lY40zI5h+Hb7eas9iLLtNHODbY89pz
NQBT5Hcu9AUUlqcveL1QDFrvT1B660fKloBkoHcYIBaQYv/Yx/XgjxMjVu4umGWd
bo+RVk3wOAt50iMklMyP61rlmdWyG6CftJ89902bxkbZUv4uD5+vmJhh89G6k6Kp
Q+bxUKtl7A0JkhoK/cCdxO0CAwEAAaOBwzCBwDAJBgNVHRMEAjAAMB0GA1UdDgQW
BBQW/stvjQn9+WEC5cUj7myzL92eHDAfBgNVHSMEGDAWgBSBgGYN2eUO+E4JUd+n
R7lEbQ5g6DA/BglghkgBhvhCAQQEMhYwaHR0cHM6Ly93d3cuY2hhbmRsZXJmYW1p
bHkub3JnLnVrL2NhL2FrYy1jcmwucGVtMAsGA1UdDwQEAwIF4DAlBgNVHREEHjAc
ggtlZXlvcmUuaG9tZYINcmVjb3JkZXIuaG9tZTANBgkqhkiG9w0BAQsFAAOCAQEA
pSN6C45/ZX5qgP59qSkQJ+OzxNUKzmzc/9yg2tys3Gtn0oF7eJB2XrFVHFlGajaU
NXZZ72o1eP/1yk5GqHVbb7KgQKq7HcJ9U0zZSHdrgNrB3zfA5Z7HkEKcYkPt3cRG
T6kPIGdGq7fHnoe9bDmPUrco9u0WCR6Yrx9+nRmTmloDI6Rjbj4VU+VJfTleonAR
PiZP+StCgFV6uYmMGVTEcV2qd2bxH8dAOJt21F1FQl/VZ4OcoKFcx8h3LQRWdDHR
m1+t1Pp7S1fBqZLA5Jy2+KVNhit7+rlJQneNUrOG9LIJTDdE/iiVCM62lygdFDJF
UhjIBdB1qEOwKf0eSDxO2A==
-----END CERTIFICATE-----
